; ModuleID = '35/416.c'
source_filename = "35/416.c"
target datalayout = "e-m:e-p270:32:32-p271:32:32-p272:64:64-i64:64-f80:128-n8:16:32:64-S128"
target triple = "x86_64-pc-linux-gnu"

@.str = private unnamed_addr constant [6 x i8] c"%d,%d\00", align 1
@.str.1 = private unnamed_addr constant [3 x i8] c"%d\00", align 1
@.str.2 = private unnamed_addr constant [6 x i8] c"%d+%d\00", align 1
@.str.3 = private unnamed_addr constant [3 x i8] c"No\00", align 1

; Function Attrs: noinline nounwind uwtable
define dso_local i32 @main() #0 {
  %1 = alloca i32, align 4
  %2 = alloca i32, align 4
  %3 = alloca i32, align 4
  %4 = alloca i32, align 4
  %5 = alloca i32, align 4
  %6 = alloca i32, align 4
  %7 = alloca i32, align 4
  %8 = alloca [8 x [8 x i32]], align 16
  %9 = alloca i32, align 4
  %10 = alloca i32, align 4
  store i32 0, i32* %1, align 4
  store i32 0, i32* %9, align 4
  %11 = call i32 (i8*, ...) @__isoc99_scanf(i8* getelementptr inbounds ([6 x i8], [6 x i8]* @.str, i64 0, i64 0), i32* %2, i32* %3)
  store i32 0, i32* %4, align 4
  br label %12

12:                                               ; preds = %33, %0
  %13 = load i32, i32* %4, align 4
  %14 = load i32, i32* %2, align 4
  %15 = icmp slt i32 %13, %14
  br i1 %15, label %16, label %36

16:                                               ; preds = %12
  store i32 0, i32* %5, align 4
  br label %17

17:                                               ; preds = %29, %16
  %18 = load i32, i32* %5, align 4
  %19 = load i32, i32* %3, align 4
  %20 = icmp slt i32 %18, %19
  br i1 %20, label %21, label %32

21:                                               ; preds = %17
  %22 = load i32, i32* %4, align 4
  %23 = sext i32 %22 to i64
  %24 = getelementptr inbounds [8 x [8 x i32]], [8 x [8 x i32]]* %8, i64 0, i64 %23
  %25 = load i32, i32* %5, align 4
  %26 = sext i32 %25 to i64
  %27 = getelementptr inbounds [8 x i32], [8 x i32]* %24, i64 0, i64 %26
  %28 = call i32 (i8*, ...) @__isoc99_scanf(i8* getelementptr inbounds ([3 x i8], [3 x i8]* @.str.1, i64 0, i64 0), i32* %27)
  br label %29

29:                                               ; preds = %21
  %30 = load i32, i32* %5, align 4
  %31 = add nsw i32 %30, 1
  store i32 %31, i32* %5, align 4
  br label %17

32:                                               ; preds = %17
  br label %33

33:                                               ; preds = %32
  %34 = load i32, i32* %4, align 4
  %35 = add nsw i32 %34, 1
  store i32 %35, i32* %4, align 4
  br label %12

36:                                               ; preds = %12
  store i32 0, i32* %4, align 4
  br label %37

37:                                               ; preds = %106, %36
  %38 = load i32, i32* %4, align 4
  %39 = load i32, i32* %2, align 4
  %40 = icmp slt i32 %38, %39
  br i1 %40, label %41, label %109

41:                                               ; preds = %37
  %42 = load i32, i32* %4, align 4
  store i32 %42, i32* %6, align 4
  store i32 0, i32* %7, align 4
  store i32 0, i32* %5, align 4
  br label %43

43:                                               ; preds = %69, %41
  %44 = load i32, i32* %5, align 4
  %45 = load i32, i32* %3, align 4
  %46 = sub nsw i32 %45, 1
  %47 = icmp slt i32 %44, %46
  br i1 %47, label %48, label %72

48:                                               ; preds = %43
  %49 = load i32, i32* %6, align 4
  %50 = sext i32 %49 to i64
  %51 = getelementptr inbounds [8 x [8 x i32]], [8 x [8 x i32]]* %8, i64 0, i64 %50
  %52 = load i32, i32* %7, align 4
  %53 = sext i32 %52 to i64
  %54 = getelementptr inbounds [8 x i32], [8 x i32]* %51, i64 0, i64 %53
  %55 = load i32, i32* %54, align 4
  %56 = load i32, i32* %4, align 4
  %57 = sext i32 %56 to i64
  %58 = getelementptr inbounds [8 x [8 x i32]], [8 x [8 x i32]]* %8, i64 0, i64 %57
  %59 = load i32, i32* %5, align 4
  %60 = add nsw i32 %59, 1
  %61 = sext i32 %60 to i64
  %62 = getelementptr inbounds [8 x i32], [8 x i32]* %58, i64 0, i64 %61
  %63 = load i32, i32* %62, align 4
  %64 = icmp slt i32 %55, %63
  br i1 %64, label %65, label %68

65:                                               ; preds = %48
  %66 = load i32, i32* %5, align 4
  %67 = add nsw i32 %66, 1
  store i32 %67, i32* %7, align 4
  br label %68

68:                                               ; preds = %65, %48
  br label %69

69:                                               ; preds = %68
  %70 = load i32, i32* %5, align 4
  %71 = add nsw i32 %70, 1
  store i32 %71, i32* %5, align 4
  br label %43

72:                                               ; preds = %43
  store i32 0, i32* %9, align 4
  store i32 0, i32* %10, align 4
  br label %73

73:                                               ; preds = %97, %72
  %74 = load i32, i32* %10, align 4
  %75 = load i32, i32* %2, align 4
  %76 = icmp slt i32 %74, %75
  br i1 %76, label %77, label %100

77:                                               ; preds = %73
  %78 = load i32, i32* %6, align 4
  %79 = sext i32 %78 to i64
  %80 = getelementptr inbounds [8 x [8 x i32]], [8 x [8 x i32]]* %8, i64 0, i64 %79
  %81 = load i32, i32* %7, align 4
  %82 = sext i32 %81 to i64
  %83 = getelementptr inbounds [8 x i32], [8 x i32]* %80, i64 0, i64 %82
  %84 = load i32, i32* %83, align 4
  %85 = load i32, i32* %10, align 4
  %86 = sext i32 %85 to i64
  %87 = getelementptr inbounds [8 x [8 x i32]], [8 x [8 x i32]]* %8, i64 0, i64 %86
  %88 = load i32, i32* %7, align 4
  %89 = sext i32 %88 to i64
  %90 = getelementptr inbounds [8 x i32], [8 x i32]* %87, i64 0, i64 %89
  %91 = load i32, i32* %90, align 4
  %92 = icmp sle i32 %84, %91
  br i1 %92, label %93, label %96

93:                                               ; preds = %77
  %94 = load i32, i32* %9, align 4
  %95 = add nsw i32 %94, 1
  store i32 %95, i32* %9, align 4
  br label %96

96:                                               ; preds = %93, %77
  br label %97

97:                                               ; preds = %96
  %98 = load i32, i32* %10, align 4
  %99 = add nsw i32 %98, 1
  store i32 %99, i32* %10, align 4
  br label %73

100:                                              ; preds = %73
  %101 = load i32, i32* %9, align 4
  %102 = load i32, i32* %2, align 4
  %103 = icmp eq i32 %101, %102
  br i1 %103, label %104, label %105

104:                                              ; preds = %100
  br label %109

105:                                              ; preds = %100
  br label %106

106:                                              ; preds = %105
  %107 = load i32, i32* %4, align 4
  %108 = add nsw i32 %107, 1
  store i32 %108, i32* %4, align 4
  br label %37

109:                                              ; preds = %104, %37
  %110 = load i32, i32* %9, align 4
  %111 = load i32, i32* %2, align 4
  %112 = icmp eq i32 %110, %111
  br i1 %112, label %113, label %117

113:                                              ; preds = %109
  %114 = load i32, i32* %6, align 4
  %115 = load i32, i32* %7, align 4
  %116 = call i32 (i8*, ...) @printf(i8* getelementptr inbounds ([6 x i8], [6 x i8]* @.str.2, i64 0, i64 0), i32 %114, i32 %115)
  br label %119

117:                                              ; preds = %109
  %118 = call i32 (i8*, ...) @printf(i8* getelementptr inbounds ([3 x i8], [3 x i8]* @.str.3, i64 0, i64 0))
  br label %119

119:                                              ; preds = %117, %113
  ret i32 0
}

declare dso_local i32 @__isoc99_scanf(i8*, ...) #1

declare dso_local i32 @printf(i8*, ...) #1


!llvm.module.flags = !{!0}
!llvm.ident = !{!1}

!0 = !{i32 1, !"wchar_size", i32 4}
!1 = !{!"clang version 10.0.0-4ubuntu1 "}
